; ModuleID = 'source-C-CXX/57/1274.c'
source_filename = "source-C-CXX/57/1274.c"
target datalayout = "e-m:e-p270:32:32-p271:32:32-p272:64:64-i64:64-f80:128-n8:16:32:64-S128"
target triple = "x86_64-pc-linux-gnu"

@.str = private unnamed_addr constant [3 x i8] c"%d\00", align 1
@.str.1 = private unnamed_addr constant [4 x i8] c"%d\0A\00", align 1

; Function Attrs: nounwind sspstrong uwtable
define dso_local i32 @main() local_unnamed_addr #0 {
  %1 = alloca i32, align 4
  %2 = alloca [90 x i8], align 16
  %3 = bitcast i32* %1 to i8*
  call void @llvm.lifetime.start.p0i8(i64 4, i8* nonnull %3) #6
  %4 = getelementptr inbounds [90 x i8], [90 x i8]* %2, i64 0, i64 0
  call void @llvm.lifetime.start.p0i8(i64 90, i8* nonnull %4) #6
  %5 = call i32 (i8*, ...) @__isoc99_scanf(i8* getelementptr inbounds ([3 x i8], [3 x i8]* @.str, i64 0, i64 0), i32* nonnull %1)
  %6 = call i32 (i8*, ...) bitcast (i32 (...)* @gets to i32 (i8*, ...)*)(i8* nonnull %4) #6
  %7 = load i32, i32* %1, align 4, !tbaa !5
  %8 = add nsw i32 %7, -1
  store i32 %8, i32* %1, align 4, !tbaa !5
  %9 = icmp eq i32 %7, 0
  br i1 %9, label %52, label %10

10:                                               ; preds = %0, %46
  %11 = call i32 (i8*, ...) bitcast (i32 (...)* @gets to i32 (i8*, ...)*)(i8* nonnull %4) #6
  %12 = call i64 @strlen(i8* noundef nonnull %4) #7
  %13 = trunc i64 %12 to i32
  %14 = icmp eq i32 %13, 0
  br i1 %14, label %22, label %15

15:                                               ; preds = %10
  %16 = load i8, i8* %4, align 16, !tbaa !9
  %17 = icmp eq i8 %16, 95
  br i1 %17, label %23, label %18

18:                                               ; preds = %15
  %19 = sext i8 %16 to i32
  %20 = call i32 @isalpha(i32 %19) #7
  %21 = icmp eq i32 %20, 0
  br i1 %21, label %22, label %23

22:                                               ; preds = %18, %10
  br label %23

23:                                               ; preds = %22, %18, %15
  %24 = phi i32 [ 0, %22 ], [ 1, %15 ], [ 1, %18 ]
  %25 = icmp sgt i32 %13, 1
  br i1 %25, label %26, label %46

26:                                               ; preds = %23
  %27 = and i64 %12, 4294967295
  br label %28

28:                                               ; preds = %26, %42
  %29 = phi i64 [ 1, %26 ], [ %44, %42 ]
  %30 = phi i32 [ %24, %26 ], [ %43, %42 ]
  %31 = getelementptr inbounds [90 x i8], [90 x i8]* %2, i64 0, i64 %29
  %32 = load i8, i8* %31, align 1, !tbaa !9
  %33 = sext i8 %32 to i32
  %34 = icmp eq i8 %32, 95
  br i1 %34, label %42, label %35

35:                                               ; preds = %28
  %36 = call i32 @isalpha(i32 %33) #7
  %37 = icmp ne i32 %36, 0
  %38 = add nsw i32 %33, -48
  %39 = icmp ult i32 %38, 10
  %40 = select i1 %37, i1 true, i1 %39
  %41 = select i1 %40, i32 %30, i32 0
  br label %42

42:                                               ; preds = %35, %28
  %43 = phi i32 [ %30, %28 ], [ %41, %35 ]
  %44 = add nuw nsw i64 %29, 1
  %45 = icmp eq i64 %44, %27
  br i1 %45, label %46, label %28, !llvm.loop !10

46:                                               ; preds = %42, %23
  %47 = phi i32 [ %24, %23 ], [ %43, %42 ]
  %48 = call i32 (i8*, ...) @printf(i8* nonnull dereferenceable(1) getelementptr inbounds ([4 x i8], [4 x i8]* @.str.1, i64 0, i64 0), i32 %47)
  %49 = load i32, i32* %1, align 4, !tbaa !5
  %50 = add nsw i32 %49, -1
  store i32 %50, i32* %1, align 4, !tbaa !5
  %51 = icmp eq i32 %49, 0
  br i1 %51, label %52, label %10, !llvm.loop !12

52:                                               ; preds = %46, %0
  call void @llvm.lifetime.end.p0i8(i64 90, i8* nonnull %4) #6
  call void @llvm.lifetime.end.p0i8(i64 4, i8* nonnull %3) #6
  ret i32 0
}

; Function Attrs: argmemonly mustprogress nofree nosync nounwind willreturn
declare void @llvm.lifetime.start.p0i8(i64 immarg, i8* nocapture) #1

; Function Attrs: nofree nounwind
declare noundef i32 @__isoc99_scanf(i8* nocapture noundef readonly, ...) local_unnamed_addr #2

declare i32 @gets(...) local_unnamed_addr #3

; Function Attrs: argmemonly mustprogress nofree nounwind readonly willreturn
declare i64 @strlen(i8* nocapture) local_unnamed_addr #4

; Function Attrs: mustprogress nofree nounwind readonly willreturn
declare i32 @isalpha(i32) local_unnamed_addr #5

; Function Attrs: nofree nounwind
declare noundef i32 @printf(i8* nocapture noundef readonly, ...) local_unnamed_addr #2

; Function Attrs: argmemonly mustprogress nofree nosync nounwind willreturn
declare void @llvm.lifetime.end.p0i8(i64 immarg, i8* nocapture) #1


!llvm.module.flags = !{!0, !1, !2, !3}
!llvm.ident = !{!4}

!0 = !{i32 1, !"wchar_size", i32 4}
!1 = !{i32 7, !"PIC Level", i32 2}
!2 = !{i32 7, !"PIE Level", i32 2}
!3 = !{i32 7, !"uwtable", i32 1}
!4 = !{!"clang version 13.0.0"}
!5 = !{!6, !6, i64 0}
!6 = !{!"int", !7, i64 0}
!7 = !{!"omnipotent char", !8, i64 0}
!8 = !{!"Simple C/C++ TBAA"}
!9 = !{!7, !7, i64 0}
!10 = distinct !{!10, !11}
!11 = !{!"llvm.loop.mustprogress"}
!12 = distinct !{!12, !11}
